target datalayout = "e-m:e-p270:32:32-p271:32:32-p272:64:64-i64:64-i128:128-f80:128-n8:16:32:64-S128"
target triple = "x86_64-pc-linux-gnu"

%struct._GDBusInterfaceVTable = type { ptr, ptr, ptr, [8 x ptr] }
%struct.dt_dbus_t = type { i32, ptr, i32, i32, ptr }
%struct._GDBusNodeInfo = type { i32, ptr, ptr, ptr, ptr }

@.str.2 = private unnamed_addr constant [11 x i8] c"/darktable\00", align 1
@interface_vtable = internal constant %struct._GDBusInterfaceVTable { ptr @_handle_method_call, ptr @_handle_get_property, ptr null, [8 x ptr] zeroinitializer }, align 8

; Function Attrs: nounwind uwtable
define internal void @_on_bus_acquired(ptr noundef %0, ptr noundef %1, ptr noundef %2) #0 {
  %4 = alloca ptr, align 8
  %5 = alloca ptr, align 8
  %6 = alloca ptr, align 8
  %7 = alloca ptr, align 8
  store ptr %0, ptr %4, align 8, !tbaa !18
  store ptr %1, ptr %5, align 8, !tbaa !19
  store ptr %2, ptr %6, align 8, !tbaa !21
  call void @llvm.lifetime.start.p0(i64 8, ptr %7) #5
  %8 = load ptr, ptr %6, align 8, !tbaa !21
  store ptr %8, ptr %7, align 8, !tbaa !6
  %9 = load ptr, ptr %4, align 8, !tbaa !18
  %10 = load ptr, ptr %7, align 8, !tbaa !6
  %11 = getelementptr inbounds nuw %struct.dt_dbus_t, ptr %10, i32 0, i32 1
  %12 = load ptr, ptr %11, align 8, !tbaa !11
  %13 = getelementptr inbounds nuw %struct._GDBusNodeInfo, ptr %12, i32 0, i32 2
  %14 = load ptr, ptr %13, align 8, !tbaa !22
  %15 = getelementptr inbounds ptr, ptr %14, i64 0
  %16 = load ptr, ptr %15, align 8, !tbaa !27
  %17 = load ptr, ptr %7, align 8, !tbaa !6
  %18 = call i32 @g_dbus_connection_register_object(ptr noundef %9, ptr noundef @.str.2, ptr noundef %16, ptr noundef @interface_vtable, ptr noundef %17, ptr noundef null, ptr noundef null)
  %19 = load ptr, ptr %7, align 8, !tbaa !6
  %20 = getelementptr inbounds nuw %struct.dt_dbus_t, ptr %19, i32 0, i32 3
  store i32 %18, ptr %20, align 4, !tbaa !29
  %21 = load ptr, ptr %7, align 8, !tbaa !6
  %22 = getelementptr inbounds nuw %struct.dt_dbus_t, ptr %21, i32 0, i32 3
  %23 = load i32, ptr %22, align 4, !tbaa !29
  %24 = icmp eq i32 %23, 0
  br i1 %24, label %25, label %28

25:                                               ; preds = %3
  %26 = load ptr, ptr %7, align 8, !tbaa !6
  %27 = getelementptr inbounds nuw %struct.dt_dbus_t, ptr %26, i32 0, i32 0
  store i32 0, ptr %27, align 8, !tbaa !30
  br label %28

28:                                               ; preds = %25, %3
  call void @llvm.lifetime.end.p0(i64 8, ptr %7) #5
  ret void
}