; Function Attrs: nounwind uwtable
define internal void @_on_bus_acquired(ptr noundef %0, ptr readnone captures(none) %1, ptr noundef %2) #0 {
  %4 = getelementptr inbounds nuw i8, ptr %2, i64 8
  %5 = load ptr, ptr %4, align 8, !tbaa !6
  %6 = getelementptr inbounds nuw i8, ptr %5, i64 16
  %7 = load ptr, ptr %6, align 8, !tbaa !16
  %8 = load ptr, ptr %7, align 8, !tbaa !22
  %9 = tail call i32 @g_dbus_connection_register_object(ptr noundef %0, ptr noundef nonnull @.str.2, ptr noundef %8, ptr noundef nonnull @interface_vtable, ptr noundef %2, ptr noundef null, ptr noundef null) #8
  %10 = getelementptr inbounds nuw i8, ptr %2, i64 20
  store i32 %9, ptr %10, align 4, !tbaa !24
  %11 = icmp eq i32 %9, 0
  br i1 %11, label %12, label %13

12:                                               ; preds = %3
  store i32 0, ptr %2, align 8, !tbaa !25
  br label %13

13:                                               ; preds = %12, %3
  ret void
}